; Function Attrs: mustprogress uwtable
define void @_ZNK18OpenImageIO_v2_6_09ImageSpec16getattributetypeENS_17basic_string_viewIcSt11char_traitsIcEEEb(ptr noalias nocapture writeonly sret(%"struct.OpenImageIO_v2_6_0::TypeDesc") align 4 %agg.result, ptr noundef nonnull align 8 dereferenceable(160) %this, ptr nocapture noundef readonly %name, i1 noundef zeroext %casesensitive) local_unnamed_addr #5 align 2 personality ptr @__gxx_personality_v0 {
entry:
  %pv = alloca %"class.OpenImageIO_v2_6_0::ParamValue", align 8
  %agg.tmp = alloca %"class.OpenImageIO_v2_6_0::basic_string_view", align 8
  %agg.tmp2 = alloca %"struct.OpenImageIO_v2_6_0::TypeDesc", align 4
  store ptr null, ptr %pv, align 8
  %m_type.i = getelementptr inbounds i8, ptr %pv, i64 8
  store i8 0, ptr %m_type.i, align 8
  %aggregate.i.i = getelementptr inbounds i8, ptr %pv, i64 9
  store i8 1, ptr %aggregate.i.i, align 1
  %vecsemantics.i.i = getelementptr inbounds i8, ptr %pv, i64 10
  %m_nvalues.i = getelementptr inbounds i8, ptr %pv, i64 32
  call void @llvm.memset.p0.i64(ptr noundef nonnull align 2 dereferenceable(14) %vecsemantics.i.i, i8 0, i64 14, i1 false)
  call void @llvm.memset.p0.i64(ptr noundef nonnull align 8 dereferenceable(7) %m_nvalues.i, i8 0, i64 7, i1 false)
  %0 = load ptr, ptr %name, align 8
  store ptr %0, ptr %agg.tmp, align 8
  %m_len.i = getelementptr inbounds i8, ptr %agg.tmp, i64 8
  %m_len.i.i = getelementptr inbounds i8, ptr %name, i64 8
  %1 = load i64, ptr %m_len.i.i, align 8
  store i64 %1, ptr %m_len.i, align 8
  store <4 x i8> <i8 0, i8 1, i8 0, i8 0>, ptr %agg.tmp2, align 4
  %arraylen.i = getelementptr inbounds i8, ptr %agg.tmp2, i64 4
  store i32 0, ptr %arraylen.i, align 4
  %call = invoke noundef ptr @_ZNK18OpenImageIO_v2_6_09ImageSpec14find_attributeENS_17basic_string_viewIcSt11char_traitsIcEEERNS_10ParamValueENS_8TypeDescEb(ptr noundef nonnull align 8 dereferenceable(160) %this, ptr noundef nonnull %agg.tmp, ptr noundef nonnull align 8 dereferenceable(39) %pv, ptr noundef nonnull %agg.tmp2, i1 noundef zeroext %casesensitive)
          to label %invoke.cont3 unwind label %lpad

invoke.cont3:                                     ; preds = %entry
  %tobool4.not = icmp eq ptr %call, null
  br i1 %tobool4.not, label %cond.end, label %cond.true

cond.true:                                        ; preds = %invoke.cont3
  %m_type.i2 = getelementptr inbounds i8, ptr %call, i64 8
  %2 = load i8, ptr %m_type.i2, align 4, !noalias !30
  %aggregate3.i.i = getelementptr inbounds i8, ptr %call, i64 9
  %3 = load i8, ptr %aggregate3.i.i, align 1, !noalias !30
  %vecsemantics4.i.i = getelementptr inbounds i8, ptr %call, i64 10
  %4 = load i8, ptr %vecsemantics4.i.i, align 2, !noalias !30
  %arraylen5.i.i = getelementptr inbounds i8, ptr %call, i64 12
  %5 = load i32, ptr %arraylen5.i.i, align 4, !noalias !30
  br label %cond.end

cond.end:                                         ; preds = %invoke.cont3, %cond.true
  %.sink11 = phi i8 [ %2, %cond.true ], [ 0, %invoke.cont3 ]
  %.sink10 = phi i8 [ %3, %cond.true ], [ 1, %invoke.cont3 ]
  %.sink9 = phi i8 [ %4, %cond.true ], [ 0, %invoke.cont3 ]
  %.sink = phi i32 [ %5, %cond.true ], [ 0, %invoke.cont3 ]
  store i8 %.sink11, ptr %agg.result, align 4
  %6 = getelementptr inbounds i8, ptr %agg.result, i64 1
  store i8 %.sink10, ptr %6, align 1
  %7 = getelementptr inbounds i8, ptr %agg.result, i64 2
  store i8 %.sink9, ptr %7, align 2
  %8 = getelementptr inbounds i8, ptr %agg.result, i64 3
  store i8 0, ptr %8, align 1
  %9 = getelementptr inbounds i8, ptr %agg.result, i64 4
  store i32 %.sink, ptr %9, align 4
  call void @_ZN18OpenImageIO_v2_6_010ParamValue11clear_valueEv(ptr noundef nonnull align 8 dereferenceable(39) %pv) #28
  ret void

lpad:                                             ; preds = %entry
  %10 = landingpad { ptr, i32 }
          cleanup
  call void @_ZN18OpenImageIO_v2_6_010ParamValue11clear_valueEv(ptr noundef nonnull align 8 dereferenceable(39) %pv) #28
  resume { ptr, i32 } %10
}